; Function Attrs: nounwind sspstrong uwtable
define hidden range(i32 0, 2) i32 @simple_ogg_page__get_at(ptr noundef %0, i64 noundef %1, ptr noundef %2, ptr noundef readonly %3, ptr noundef readonly captures(none) %4, ptr noundef %5) local_unnamed_addr #3 {
  %7 = alloca i64, align 8
  %8 = alloca [4 x i8], align 4
  call void @llvm.lifetime.start.p0(i64 4, ptr nonnull %8) #11
  %9 = icmp eq ptr %3, null
  br i1 %9, label %84, label %10

10:                                               ; preds = %6
  %11 = tail call i32 %3(ptr noundef %0, i64 noundef %1, ptr noundef %5) #11
  switch i32 %11, label %84 [
    i32 0, label %14
    i32 1, label %12
  ]

12:                                               ; preds = %10
  %13 = load ptr, ptr %0, align 8, !tbaa !11
  store i32 5, ptr %13, align 8, !tbaa !15
  br label %84

14:                                               ; preds = %10
  %15 = tail call noalias noundef dereferenceable_or_null(282) ptr @malloc(i64 noundef 282) #12
  store ptr %15, ptr %2, align 8, !tbaa !3
  %16 = icmp eq ptr %15, null
  br i1 %16, label %17, label %.lr.ph.i

17:                                               ; preds = %14
  %18 = load ptr, ptr %0, align 8, !tbaa !11
  store i32 8, ptr %18, align 8, !tbaa !15
  br label %84

.lr.ph.i:                                         ; preds = %14, %26
  %.01529.i = phi ptr [ %.116.i, %26 ], [ %15, %14 ]
  %.01828.i = phi i64 [ %.119.i, %26 ], [ 27, %14 ]
  call void @llvm.lifetime.start.p0(i64 8, ptr nonnull %7) #11
  store i64 %.01828.i, ptr %7, align 8, !tbaa !23
  %19 = call i32 %4(ptr noundef %0, ptr noundef %.01529.i, ptr noundef nonnull %7, ptr noundef %5) #11
  switch i32 %19, label %.thread.sink.split.i [
    i32 0, label %20
    i32 1, label %22
    i32 3, label %full_read_.exit.thread
  ]

20:                                               ; preds = %.lr.ph.i
  %21 = load i64, ptr %7, align 8, !tbaa !23
  br label %26

22:                                               ; preds = %.lr.ph.i
  %23 = load i64, ptr %7, align 8, !tbaa !23
  %24 = icmp eq i64 %23, 0
  br i1 %24, label %.thread.sink.split.i, label %26

.thread.sink.split.i:                             ; preds = %22, %.lr.ph.i
  %.sink.i = phi i32 [ 2, %22 ], [ 5, %.lr.ph.i ]
  %25 = load ptr, ptr %0, align 8, !tbaa !11
  store i32 %.sink.i, ptr %25, align 8, !tbaa !15
  br label %full_read_.exit.thread

full_read_.exit.thread:                           ; preds = %.lr.ph.i, %.thread.sink.split.i
  call void @llvm.lifetime.end.p0(i64 8, ptr nonnull %7) #11
  br label %84

26:                                               ; preds = %22, %20
  %.pn.i = phi i64 [ %21, %20 ], [ %23, %22 ]
  %.116.i = getelementptr inbounds nuw i8, ptr %.01529.i, i64 %.pn.i
  %.119.i = sub i64 %.01828.i, %.pn.i
  call void @llvm.lifetime.end.p0(i64 8, ptr nonnull %7) #11
  %.not.i = icmp eq i64 %.119.i, 0
  br i1 %.not.i, label %full_read_.exit, label %.lr.ph.i

full_read_.exit:                                  ; preds = %26
  %27 = load ptr, ptr %2, align 8, !tbaa !3
  %28 = getelementptr inbounds nuw i8, ptr %27, i64 26
  %29 = load i8, ptr %28, align 1, !tbaa !24
  %30 = zext i8 %29 to i64
  %31 = add nuw nsw i64 %30, 27
  %32 = getelementptr inbounds nuw i8, ptr %2, i64 8
  store i64 %31, ptr %32, align 8, !tbaa !25
  %bcmp = call i32 @bcmp(ptr noundef nonnull dereferenceable(4) %27, ptr noundef nonnull dereferenceable(4) @.str, i64 4)
  %.not55 = icmp eq i32 %bcmp, 0
  br i1 %.not55, label %33, label %42

33:                                               ; preds = %full_read_.exit
  %34 = getelementptr inbounds nuw i8, ptr %27, i64 5
  %35 = load i8, ptr %34, align 1, !tbaa !24
  %36 = and i8 %35, 1
  %.not56 = icmp eq i8 %36, 0
  br i1 %.not56, label %37, label %42

37:                                               ; preds = %33
  %38 = getelementptr inbounds nuw i8, ptr %27, i64 6
  %bcmp57 = call i32 @bcmp(ptr noundef nonnull dereferenceable(8) %38, ptr noundef nonnull dereferenceable(8) @.str.1, i64 8)
  %.not58 = icmp eq i32 %bcmp57, 0
  br i1 %.not58, label %39, label %42

39:                                               ; preds = %37
  %40 = load i8, ptr %28, align 1, !tbaa !24
  %41 = icmp eq i8 %40, 0
  br i1 %41, label %42, label %44

42:                                               ; preds = %39, %37, %33, %full_read_.exit
  %43 = load ptr, ptr %0, align 8, !tbaa !11
  store i32 2, ptr %43, align 8, !tbaa !15
  br label %84

44:                                               ; preds = %39
  %45 = getelementptr inbounds nuw i8, ptr %27, i64 27
  %46 = zext i8 %40 to i64
  %47 = call fastcc i32 @full_read_(ptr noundef %0, ptr noundef nonnull %45, i64 noundef %46, ptr noundef %4, ptr noundef %5)
  %.not59 = icmp eq i32 %47, 0
  br i1 %.not59, label %84, label %.preheader

.preheader:                                       ; preds = %44
  %48 = load ptr, ptr %2, align 8, !tbaa !3
  %49 = getelementptr inbounds nuw i8, ptr %48, i64 26
  %50 = load i8, ptr %49, align 1, !tbaa !24
  %51 = zext i8 %50 to i32
  %52 = add nsw i32 %51, -1
  %.not6169.not = icmp eq i32 %52, 0
  br i1 %.not6169.not, label %._crit_edge, label %.lr.ph.preheader

.lr.ph.preheader:                                 ; preds = %.preheader
  %53 = add nsw i32 %51, -1
  %wide.trip.count = zext i32 %52 to i64
  br label %.lr.ph

.lr.ph:                                           ; preds = %.lr.ph.preheader, %59
  %indvars.iv = phi i64 [ 0, %.lr.ph.preheader ], [ %indvars.iv.next, %59 ]
  %54 = add nuw i64 %indvars.iv, 27
  %55 = and i64 %54, 4294967295
  %56 = getelementptr inbounds nuw i8, ptr %48, i64 %55
  %57 = load i8, ptr %56, align 1, !tbaa !24
  %.not60 = icmp eq i8 %57, -1
  br i1 %.not60, label %59, label %.thread

.thread:                                          ; preds = %.lr.ph
  %58 = load ptr, ptr %0, align 8, !tbaa !11
  store i32 2, ptr %58, align 8, !tbaa !15
  br label %84

59:                                               ; preds = %.lr.ph
  %indvars.iv.next = add nuw nsw i64 %indvars.iv, 1
  %exitcond.not = icmp eq i64 %indvars.iv.next, %wide.trip.count
  br i1 %exitcond.not, label %._crit_edge, label %.lr.ph, !llvm.loop !26

._crit_edge:                                      ; preds = %59, %.preheader
  %.0.lcssa = phi i32 [ 0, %.preheader ], [ %53, %59 ]
  %60 = mul nsw i32 %.0.lcssa, 255
  %61 = add nsw i32 %.0.lcssa, 27
  %62 = zext i32 %61 to i64
  %63 = getelementptr inbounds nuw i8, ptr %48, i64 %62
  %64 = load i8, ptr %63, align 1, !tbaa !24
  %65 = zext i8 %64 to i32
  %66 = add nsw i32 %60, %65
  %67 = zext i32 %66 to i64
  %68 = getelementptr inbounds nuw i8, ptr %2, i64 24
  store i64 %67, ptr %68, align 8, !tbaa !28
  %spec.select.i = call i64 @llvm.umax.i64(i64 %67, i64 1)
  %69 = call noalias noundef ptr @malloc(i64 noundef %spec.select.i) #12
  %70 = getelementptr inbounds nuw i8, ptr %2, i64 16
  store ptr %69, ptr %70, align 8, !tbaa !10
  %71 = icmp eq ptr %69, null
  br i1 %71, label %72, label %74

72:                                               ; preds = %._crit_edge
  %73 = load ptr, ptr %0, align 8, !tbaa !11
  store i32 8, ptr %73, align 8, !tbaa !15
  br label %84

74:                                               ; preds = %._crit_edge
  %75 = call fastcc i32 @full_read_(ptr noundef %0, ptr noundef nonnull %69, i64 noundef %67, ptr noundef %4, ptr noundef %5)
  %.not62 = icmp eq i32 %75, 0
  br i1 %.not62, label %84, label %76

76:                                               ; preds = %74
  %77 = load ptr, ptr %2, align 8, !tbaa !3
  %78 = getelementptr inbounds nuw i8, ptr %77, i64 22
  %79 = load i32, ptr %78, align 1
  store i32 %79, ptr %8, align 4
  call void @ogg_page_checksum_set(ptr noundef nonnull %2) #11
  %80 = load ptr, ptr %2, align 8, !tbaa !3
  %81 = getelementptr inbounds nuw i8, ptr %80, i64 22
  %bcmp63 = call i32 @bcmp(ptr noundef nonnull dereferenceable(4) %8, ptr noundef nonnull dereferenceable(4) %81, i64 4)
  %.not64 = icmp eq i32 %bcmp63, 0
  br i1 %.not64, label %84, label %82

82:                                               ; preds = %76
  %83 = load ptr, ptr %0, align 8, !tbaa !11
  store i32 2, ptr %83, align 8, !tbaa !15
  br label %84

84:                                               ; preds = %.thread, %full_read_.exit.thread, %76, %74, %44, %12, %10, %6, %82, %72, %42, %17
  %.049 = phi i32 [ 0, %17 ], [ 0, %42 ], [ 0, %72 ], [ 0, %82 ], [ 0, %6 ], [ 0, %10 ], [ 0, %12 ], [ 0, %44 ], [ 0, %74 ], [ 1, %76 ], [ 0, %full_read_.exit.thread ], [ 0, %.thread ]
  call void @llvm.lifetime.end.p0(i64 4, ptr nonnull %8) #11
  ret i32 %.049
}